; Function Attrs: mustprogress ssp uwtable
define void @_ZN6open3d13visualization25VisualizerWithKeyCallbackC2Ev(ptr noundef nonnull align 8 dereferenceable(648) %0) unnamed_addr #2 align 2 personality ptr @__gxx_personality_v0 {
  tail call void @_ZN6open3d13visualization10VisualizerC2Ev(ptr noundef nonnull align 8 dereferenceable(456) %0)
  store ptr getelementptr inbounds nuw inrange(-16, 200) (i8, ptr @_ZTVN6open3d13visualization25VisualizerWithKeyCallbackE, i64 16), ptr %0, align 8, !tbaa !36
  %2 = getelementptr inbounds nuw i8, ptr %0, i64 464
  store i32 0, ptr %2, align 8, !tbaa !82
  %3 = getelementptr inbounds nuw i8, ptr %0, i64 472
  store ptr null, ptr %3, align 8, !tbaa !48
  %4 = getelementptr inbounds nuw i8, ptr %0, i64 480
  store ptr %2, ptr %4, align 8, !tbaa !4
  %5 = getelementptr inbounds nuw i8, ptr %0, i64 488
  store ptr %2, ptr %5, align 8, !tbaa !83
  %6 = getelementptr inbounds nuw i8, ptr %0, i64 496
  store i64 0, ptr %6, align 8, !tbaa !84
  %7 = getelementptr inbounds nuw i8, ptr %0, i64 512
  store i32 0, ptr %7, align 8, !tbaa !82
  %8 = getelementptr inbounds nuw i8, ptr %0, i64 520
  store ptr null, ptr %8, align 8, !tbaa !48
  %9 = getelementptr inbounds nuw i8, ptr %0, i64 528
  store ptr %7, ptr %9, align 8, !tbaa !4
  %10 = getelementptr inbounds nuw i8, ptr %0, i64 536
  store ptr %7, ptr %10, align 8, !tbaa !83
  %11 = getelementptr inbounds nuw i8, ptr %0, i64 544
  tail call void @llvm.memset.p0.i64(ptr noundef nonnull align 8 dereferenceable(104) %11, i8 0, i64 104, i1 false)
  ret void
}